; Function Attrs: nofree norecurse nosync nounwind memory(readwrite, argmem: none, inaccessiblemem: none) uwtable
define hidden void @mi_option_disable(i32 noundef %0) local_unnamed_addr #4 {
  %2 = icmp ugt i32 %0, 35
  br i1 %2, label %mi_option_set_enabled.exit, label %.lr.ph.i.i

.lr.ph.i.i:                                       ; preds = %1, %.lr.ph.i.i.backedge
  %.tr14.i.i = phi i32 [ %.tr14.i.i.be, %.lr.ph.i.i.backedge ], [ %0, %1 ]
  %3 = zext nneg i32 %.tr14.i.i to i64
  %4 = getelementptr inbounds nuw [36 x %struct.mi_option_desc_s], ptr @options, i64 0, i64 %3
  store i64 0, ptr %4, align 16, !tbaa !14
  %5 = getelementptr inbounds nuw i8, ptr %4, i64 8
  store i32 2, ptr %5, align 8, !tbaa !8
  %6 = getelementptr inbounds nuw i8, ptr %4, i64 12
  %7 = load i32, ptr %6, align 4, !tbaa !22
  switch i32 %7, label %mi_option_set_enabled.exit [
    i32 30, label %8
    i32 31, label %11
  ]

8:                                                ; preds = %.lr.ph.i.i
  %9 = load i64, ptr getelementptr inbounds nuw (i8, ptr @options, i64 992), align 16, !tbaa !14
  %10 = icmp slt i64 %9, 0
  br i1 %10, label %.lr.ph.i.i.backedge, label %mi_option_set_enabled.exit

11:                                               ; preds = %.lr.ph.i.i
  %12 = load i64, ptr getelementptr inbounds nuw (i8, ptr @options, i64 960), align 16, !tbaa !14
  %13 = icmp sgt i64 %12, 0
  br i1 %13, label %.lr.ph.i.i.backedge, label %mi_option_set_enabled.exit

.lr.ph.i.i.backedge:                              ; preds = %11, %8
  %.tr14.i.i.be = phi i32 [ 31, %8 ], [ 30, %11 ]
  br label %.lr.ph.i.i

mi_option_set_enabled.exit:                       ; preds = %.lr.ph.i.i, %8, %11, %1
  ret void
}